target datalayout = "e-m:e-p270:32:32-p271:32:32-p272:64:64-i64:64-i128:128-f80:128-n8:16:32:64-S128"
target triple = "x86_64-pc-linux-gnu"

%struct.DefElem = type { i32, ptr, ptr, ptr, i32, i32 }

; Function Attrs: nounwind uwtable
define internal zeroext i1 @_equalDefElem(ptr noundef %0, ptr noundef %1) #0 {
  %3 = alloca i1, align 1
  %4 = alloca ptr, align 8
  %5 = alloca ptr, align 8
  store ptr %0, ptr %4, align 8
  store ptr %1, ptr %5, align 8
  br label %6

6:                                                ; preds = %2
  %7 = load ptr, ptr %4, align 8
  %8 = getelementptr inbounds nuw %struct.DefElem, ptr %7, i32 0, i32 1
  %9 = load ptr, ptr %8, align 8
  %10 = icmp ne ptr %9, null
  br i1 %10, label %11, label %25

11:                                               ; preds = %6
  %12 = load ptr, ptr %5, align 8
  %13 = getelementptr inbounds nuw %struct.DefElem, ptr %12, i32 0, i32 1
  %14 = load ptr, ptr %13, align 8
  %15 = icmp ne ptr %14, null
  br i1 %15, label %16, label %25

16:                                               ; preds = %11
  %17 = load ptr, ptr %4, align 8
  %18 = getelementptr inbounds nuw %struct.DefElem, ptr %17, i32 0, i32 1
  %19 = load ptr, ptr %18, align 8
  %20 = load ptr, ptr %5, align 8
  %21 = getelementptr inbounds nuw %struct.DefElem, ptr %20, i32 0, i32 1
  %22 = load ptr, ptr %21, align 8
  %23 = call i32 @strcmp(ptr noundef %19, ptr noundef %22) #8
  %24 = icmp eq i32 %23, 0
  br i1 %24, label %34, label %33

25:                                               ; preds = %11, %6
  %26 = load ptr, ptr %4, align 8
  %27 = getelementptr inbounds nuw %struct.DefElem, ptr %26, i32 0, i32 1
  %28 = load ptr, ptr %27, align 8
  %29 = load ptr, ptr %5, align 8
  %30 = getelementptr inbounds nuw %struct.DefElem, ptr %29, i32 0, i32 1
  %31 = load ptr, ptr %30, align 8
  %32 = icmp eq ptr %28, %31
  br i1 %32, label %34, label %33

33:                                               ; preds = %25, %16
  store i1 false, ptr %3, align 1
  br label %88

34:                                               ; preds = %25, %16
  br label %35

35:                                               ; preds = %34
  br label %36

36:                                               ; preds = %35
  %37 = load ptr, ptr %4, align 8
  %38 = getelementptr inbounds nuw %struct.DefElem, ptr %37, i32 0, i32 2
  %39 = load ptr, ptr %38, align 8
  %40 = icmp ne ptr %39, null
  br i1 %40, label %41, label %55

41:                                               ; preds = %36
  %42 = load ptr, ptr %5, align 8
  %43 = getelementptr inbounds nuw %struct.DefElem, ptr %42, i32 0, i32 2
  %44 = load ptr, ptr %43, align 8
  %45 = icmp ne ptr %44, null
  br i1 %45, label %46, label %55

46:                                               ; preds = %41
  %47 = load ptr, ptr %4, align 8
  %48 = getelementptr inbounds nuw %struct.DefElem, ptr %47, i32 0, i32 2
  %49 = load ptr, ptr %48, align 8
  %50 = load ptr, ptr %5, align 8
  %51 = getelementptr inbounds nuw %struct.DefElem, ptr %50, i32 0, i32 2
  %52 = load ptr, ptr %51, align 8
  %53 = call i32 @strcmp(ptr noundef %49, ptr noundef %52) #8
  %54 = icmp eq i32 %53, 0
  br i1 %54, label %64, label %63

55:                                               ; preds = %41, %36
  %56 = load ptr, ptr %4, align 8
  %57 = getelementptr inbounds nuw %struct.DefElem, ptr %56, i32 0, i32 2
  %58 = load ptr, ptr %57, align 8
  %59 = load ptr, ptr %5, align 8
  %60 = getelementptr inbounds nuw %struct.DefElem, ptr %59, i32 0, i32 2
  %61 = load ptr, ptr %60, align 8
  %62 = icmp eq ptr %58, %61
  br i1 %62, label %64, label %63

63:                                               ; preds = %55, %46
  store i1 false, ptr %3, align 1
  br label %88

64:                                               ; preds = %55, %46
  br label %65

65:                                               ; preds = %64
  br label %66

66:                                               ; preds = %65
  %67 = load ptr, ptr %4, align 8
  %68 = getelementptr inbounds nuw %struct.DefElem, ptr %67, i32 0, i32 3
  %69 = load ptr, ptr %68, align 8
  %70 = load ptr, ptr %5, align 8
  %71 = getelementptr inbounds nuw %struct.DefElem, ptr %70, i32 0, i32 3
  %72 = load ptr, ptr %71, align 8
  %73 = call zeroext i1 @equal(ptr noundef %69, ptr noundef %72)
  br i1 %73, label %75, label %74

74:                                               ; preds = %66
  store i1 false, ptr %3, align 1
  br label %88

75:                                               ; preds = %66
  br label %76

76:                                               ; preds = %75
  br label %77

77:                                               ; preds = %76
  %78 = load ptr, ptr %4, align 8
  %79 = getelementptr inbounds nuw %struct.DefElem, ptr %78, i32 0, i32 4
  %80 = load i32, ptr %79, align 8
  %81 = load ptr, ptr %5, align 8
  %82 = getelementptr inbounds nuw %struct.DefElem, ptr %81, i32 0, i32 4
  %83 = load i32, ptr %82, align 8
  %84 = icmp ne i32 %80, %83
  br i1 %84, label %85, label %86

85:                                               ; preds = %77
  store i1 false, ptr %3, align 1
  br label %88

86:                                               ; preds = %77
  br label %87

87:                                               ; preds = %86
  store i1 true, ptr %3, align 1
  br label %88

88:                                               ; preds = %87, %85, %74, %63, %33
  %89 = load i1, ptr %3, align 1
  ret i1 %89
}