; Function Attrs: nounwind uwtable
define internal fastcc zeroext i1 @_equalDefElem(ptr noundef nonnull readonly captures(none) %0, ptr noundef nonnull readonly captures(none) %1) unnamed_addr #0 {
  %3 = getelementptr inbounds nuw i8, ptr %0, i64 8
  %4 = load ptr, ptr %3, align 8
  %.not = icmp eq ptr %4, null
  %.phi.trans.insert = getelementptr inbounds nuw i8, ptr %1, i64 8
  %.pre = load ptr, ptr %.phi.trans.insert, align 8
  br i1 %.not, label %9, label %5

5:                                                ; preds = %2
  %.not21 = icmp eq ptr %.pre, null
  br i1 %.not21, label %.thread, label %6

6:                                                ; preds = %5
  %7 = tail call i32 @strcmp(ptr noundef nonnull dereferenceable(1) %4, ptr noundef nonnull dereferenceable(1) %.pre) #11
  %8 = icmp eq i32 %7, 0
  br i1 %8, label %11, label %.thread

9:                                                ; preds = %2
  %10 = icmp eq ptr %4, %.pre
  br i1 %10, label %11, label %.thread

11:                                               ; preds = %9, %6
  %12 = getelementptr inbounds nuw i8, ptr %0, i64 16
  %13 = load ptr, ptr %12, align 8
  %.not22 = icmp eq ptr %13, null
  %.phi.trans.insert26 = getelementptr inbounds nuw i8, ptr %1, i64 16
  %.pre27 = load ptr, ptr %.phi.trans.insert26, align 8
  br i1 %.not22, label %18, label %14

14:                                               ; preds = %11
  %.not23 = icmp eq ptr %.pre27, null
  br i1 %.not23, label %.thread, label %15

15:                                               ; preds = %14
  %16 = tail call i32 @strcmp(ptr noundef nonnull dereferenceable(1) %13, ptr noundef nonnull dereferenceable(1) %.pre27) #11
  %17 = icmp eq i32 %16, 0
  br i1 %17, label %20, label %.thread

18:                                               ; preds = %11
  %19 = icmp eq ptr %13, %.pre27
  br i1 %19, label %20, label %.thread

20:                                               ; preds = %18, %15
  %21 = getelementptr inbounds nuw i8, ptr %0, i64 24
  %22 = load ptr, ptr %21, align 8
  %23 = getelementptr inbounds nuw i8, ptr %1, i64 24
  %24 = load ptr, ptr %23, align 8
  %25 = tail call zeroext i1 @equal(ptr noundef %22, ptr noundef %24)
  br i1 %25, label %26, label %.thread

26:                                               ; preds = %20
  %27 = getelementptr inbounds nuw i8, ptr %0, i64 32
  %28 = load i32, ptr %27, align 8
  %29 = getelementptr inbounds nuw i8, ptr %1, i64 32
  %30 = load i32, ptr %29, align 8
  %.not24 = icmp eq i32 %28, %30
  br label %.thread

.thread:                                          ; preds = %14, %5, %26, %20, %15, %18, %6, %9
  %.0 = phi i1 [ false, %9 ], [ false, %6 ], [ false, %18 ], [ false, %15 ], [ false, %20 ], [ %.not24, %26 ], [ false, %5 ], [ false, %14 ]
  ret i1 %.0
}